; Function Attrs: nounwind uwtable
define dso_local void @bench_pbkdf2() local_unnamed_addr #0 {
  %1 = alloca %struct.timespec, align 8
  %2 = alloca %struct.timespec, align 8
  %3 = alloca [32 x i8], align 16
  %4 = alloca [32 x i8], align 16
  call void @llvm.lifetime.start.p0(i64 32, ptr nonnull %3) #16
  call void @llvm.memcpy.p0.p0.i64(ptr noundef nonnull align 16 dereferenceable(32) %3, ptr noundef nonnull align 16 dereferenceable(32) @__const.bench_pbkdf2.salt32, i64 32, i1 false)
  call void @llvm.lifetime.start.p0(i64 32, ptr nonnull %4) #16
  call void @llvm.lifetime.start.p0(i64 16, ptr nonnull %2) #16
  %5 = call i32 @clock_gettime(i32 noundef 0, ptr noundef nonnull %2) #16
  %6 = icmp slt i32 %5, 0
  br i1 %6, label %7, label %bench_stats_start.exit

7:                                                ; preds = %0
  %8 = tail call ptr @__errno_location() #17
  %9 = load i32, ptr %8, align 4, !tbaa !4
  %10 = call i32 (ptr, ...) @printf(ptr noundef nonnull dereferenceable(1) @.str.78, ptr noundef nonnull @.str.113, ptr noundef nonnull @.str.79, i32 noundef 14994, i32 noundef %9, ptr noundef nonnull @.str.80)
  %11 = load ptr, ptr @stdout, align 8, !tbaa !14
  %12 = call i32 @fflush(ptr noundef %11)
  call void @_exit(i32 noundef 1) #18
  unreachable

bench_stats_start.exit:                           ; preds = %0
  %13 = load i64, ptr %2, align 8, !tbaa !16
  %14 = sitofp i64 %13 to double
  %15 = getelementptr inbounds nuw i8, ptr %2, i64 8
  %16 = load i64, ptr %15, align 8, !tbaa !19
  %17 = sitofp i64 %16 to double
  %18 = fdiv double %17, 1.000000e+09
  %19 = fadd double %18, %14
  call void @llvm.lifetime.end.p0(i64 16, ptr nonnull %2) #16
  %20 = call { i32, i32 } asm sideeffect "cpuid\0A\09rdtsc", "={ax},={dx},{ax},~{ebx},~{ecx},~{dirflag},~{fpsr},~{flags}"(i32 0) #16, !srcloc !20
  %21 = extractvalue { i32, i32 } %20, 0
  %22 = extractvalue { i32, i32 } %20, 1
  %23 = zext i32 %21 to i64
  %24 = zext i32 %22 to i64
  %25 = shl nuw i64 %24, 32
  %26 = or disjoint i64 %25, %23
  %27 = call align 8 ptr @llvm.threadlocal.address.p0(ptr align 8 @total_cycles)
  store i64 %26, ptr %27, align 8, !tbaa !21
  %28 = getelementptr inbounds nuw i8, ptr %1, i64 8
  br label %29

29:                                               ; preds = %bench_stats_check.exit, %bench_stats_start.exit
  %.0 = phi i32 [ 0, %bench_stats_start.exit ], [ %39, %bench_stats_check.exit ]
  %30 = call i32 @wc_PBKDF2(ptr noundef nonnull %4, ptr noundef nonnull @.str.70, i32 noundef 32, ptr noundef nonnull %3, i32 noundef 32, i32 noundef 1000, i32 noundef 32, i32 noundef 6) #16
  call void @llvm.lifetime.start.p0(i64 16, ptr nonnull %1) #16
  %31 = call i32 @clock_gettime(i32 noundef 0, ptr noundef nonnull %1) #16
  %32 = icmp slt i32 %31, 0
  br i1 %32, label %33, label %bench_stats_check.exit

33:                                               ; preds = %29
  %34 = tail call ptr @__errno_location() #17
  %35 = load i32, ptr %34, align 4, !tbaa !4
  %36 = call i32 (ptr, ...) @printf(ptr noundef nonnull dereferenceable(1) @.str.78, ptr noundef nonnull @.str.113, ptr noundef nonnull @.str.79, i32 noundef 14994, i32 noundef %35, ptr noundef nonnull @.str.80)
  %37 = load ptr, ptr @stdout, align 8, !tbaa !14
  %38 = call i32 @fflush(ptr noundef %37)
  call void @_exit(i32 noundef 1) #18
  unreachable

bench_stats_check.exit:                           ; preds = %29
  %39 = add nuw nsw i32 %.0, 1
  %40 = load i64, ptr %1, align 8, !tbaa !16
  %41 = sitofp i64 %40 to double
  %42 = load i64, ptr %28, align 8, !tbaa !19
  %43 = sitofp i64 %42 to double
  %44 = fdiv double %43, 1.000000e+09
  %45 = fadd double %44, %41
  call void @llvm.lifetime.end.p0(i64 16, ptr nonnull %1) #16
  %46 = fsub double %45, %19
  %47 = fcmp uge double %46, 1.000000e+00
  br i1 %47, label %48, label %29, !llvm.loop !78

48:                                               ; preds = %bench_stats_check.exit
  call fastcc void @bench_stats_sym_finish(ptr noundef nonnull @.str.71, i32 noundef %39, i32 noundef 32, double noundef %19, i32 noundef %30)
  call void @llvm.lifetime.end.p0(i64 32, ptr nonnull %4) #16
  call void @llvm.lifetime.end.p0(i64 32, ptr nonnull %3) #16
  ret void
}